Certificate:
    Data:
        Version: 3 (0x2)
        Serial Number: 4096 (0x1000)
        Signature Algorithm: sha256WithRSAEncryption
        Issuer: CN=ASX Root CA
        Validity
            Not Before: May 17 13:04:36 2026 GMT
            Not After : May 14 13:04:36 2036 GMT
        Subject: CN=ASX Intermediate CA
        Subject Public Key Info:
            Public Key Algorithm: rsaEncryption
                Public-Key: (2048 bit)
                Modulus:
                    00:8d:b7:a1:98:19:8f:44:67:34:52:5f:c8:ac:1c:
                    17:4b:fc:56:99:fb:2d:0d:c7:77:13:1f:9a:1f:ed:
                    53:0b:b6:39:a7:a0:a1:b8:9b:9f:1b:ab:42:1a:a7:
                    1f:2b:4f:73:71:b2:9c:bc:4a:c8:76:b5:b3:84:3b:
                    05:fd:62:03:13:b4:b4:ff:89:54:eb:32:70:ea:e0:
                    03:40:f7:de:43:ff:cf:76:04:ee:7c:b5:46:37:10:
                    b4:49:4d:4d:30:c5:8b:ed:9f:fc:8f:11:cc:da:fe:
                    5d:10:05:11:ed:47:04:73:72:56:94:85:2e:8d:bd:
                    c6:72:ef:34:a4:b9:f9:8e:f3:8f:6f:d8:13:dd:89:
                    e8:cf:c6:da:96:8f:c9:88:39:3f:09:a0:45:5e:14:
                    4c:8e:fb:33:1b:42:f8:e5:9a:50:05:19:9f:fe:50:
                    8d:96:ab:1f:5b:eb:3d:bb:26:be:6b:19:7a:b4:7e:
                    a4:44:e4:dd:d8:5e:c5:96:a9:96:d0:d4:c8:94:a4:
                    dd:15:73:8d:80:16:6e:58:49:5c:df:06:1a:a0:3d:
                    95:e9:d9:3e:ff:da:15:1b:32:01:ab:14:50:02:bd:
                    af:9b:4c:fc:ca:c6:d7:e1:97:3e:5d:67:9c:76:80:
                    4e:9e:43:75:f2:e7:e6:34:bd:80:91:d9:a5:e3:fe:
                    10:71
                Exponent: 65537 (0x10001)
        X509v3 extensions:
            X509v3 Subject Key Identifier: 
                40:03:97:94:C8:DE:EA:85:F8:B5:27:E7:F6:0A:60:3B:48:1D:65:81
            X509v3 Authority Key Identifier: 
                22:E6:BB:33:4D:78:CD:14:61:55:35:39:FB:F4:D9:CF:43:C2:2B:2E
            X509v3 Basic Constraints: critical
                CA:TRUE, pathlen:0
            X509v3 Key Usage: critical
                Digital Signature, Certificate Sign, CRL Sign
    Signature Algorithm: sha256WithRSAEncryption
    Signature Value:
        3f:6d:91:6b:7c:70:55:3f:d6:a4:25:c7:c3:01:d5:51:48:91:
        59:03:fe:53:f1:71:f2:ac:4a:4d:46:85:ee:d6:63:e0:40:00:
        30:4e:56:24:2d:67:c4:cb:a3:df:d1:5e:b7:a5:88:c5:89:12:
        9f:91:d8:a9:52:67:fa:0c:14:cc:36:28:f0:29:35:96:96:77:
        68:f8:39:68:0e:13:ed:5d:32:be:c5:15:aa:0d:fe:2c:a2:4f:
        22:aa:9c:b3:a0:72:47:aa:ef:c9:aa:c1:62:64:4d:2d:5e:45:
        ac:72:82:32:ea:57:5c:fb:04:63:c2:dd:96:dd:47:a5:fb:53:
        19:52:52:e5:98:b2:60:82:85:a1:ba:9f:e0:61:7b:a3:c9:11:
        0f:9d:5a:9c:e4:f0:ea:1d:e7:69:41:99:4f:b1:44:28:02:e9:
        cb:f8:43:c2:db:75:bb:58:1f:22:ca:7e:ec:e0:09:58:30:fa:
        72:24:f3:85:1e:f6:8a:00:2a:84:6a:e1:a6:ab:af:4d:77:e4:
        da:93:b8:3a:27:68:8a:e9:fe:73:02:df:73:06:ca:bf:12:14:
        10:96:15:74:1c:f3:32:7f:a9:61:33:b4:57:89:75:bf:12:2b:
        04:db:ad:26:a0:57:bc:3f:b9:38:8a:14:60:bc:e5:92:ac:42:
        c8:b7:2c:58
-----BEGIN CERTIFICATE-----
MIIDFjCCAf6gAwIBAgICEAAwDQYJKoZIhvcNAQELBQAwFjEUMBIGA1UEAwwLQVNY
IFJvb3QgQ0EwHhcNMjYwNTE3MTMwNDM2WhcNMzYwNTE0MTMwNDM2WjAeMRwwGgYD
VQQDDBNBU1ggSW50ZXJtZWRpYXRlIENBMIIBIjANBgkqhkiG9w0BAQEFAAOCAQ8A
MIIBCgKCAQEAjbehmBmPRGc0Ul/IrBwXS/xWmfstDcd3Ex+aH+1TC7Y5p6ChuJuf
G6tCGqcfK09zcbKcvErIdrWzhDsF/WIDE7S0/4lU6zJw6uADQPfeQ//PdgTufLVG
NxC0SU1NMMWL7Z/8jxHM2v5dEAUR7UcEc3JWlIUujb3Gcu80pLn5jvOPb9gT3Yno
z8balo/JiDk/CaBFXhRMjvszG0L45ZpQBRmf/lCNlqsfW+s9uya+axl6tH6kROTd
2F7FlqmW0NTIlKTdFXONgBZuWElc3wYaoD2V6dk+/9oVGzIBqxRQAr2vm0z8ysbX
4Zc+XWecdoBOnkN18ufmNL2Akdml4/4QcQIDAQABo2YwZDAdBgNVHQ4EFgQUQAOX
lMje6oX4tSfn9gpgO0gdZYEwHwYDVR0jBBgwFoAUIua7M014zRRhVTU5+/TZz0PC
Ky4wEgYDVR0TAQH/BAgwBgEB/wIBADAOBgNVHQ8BAf8EBAMCAYYwDQYJKoZIhvcN
AQELBQADggEBAD9tkWt8cFU/1qQlx8MB1VFIkVkD/lPxcfKsSk1Ghe7WY+BAADBO
ViQtZ8TLo9/RXreliMWJEp+R2KlSZ/oMFMw2KPApNZaWd2j4OWgOE+1dMr7FFaoN
/iyiTyKqnLOgckeq78mqwWJkTS1eRaxygjLqV1z7BGPC3ZbdR6X7UxlSUuWYsmCC
haG6n+Bhe6PJEQ+dWpzk8Ood52lBmU+xRCgC6cv4Q8LbdbtYHyLKfuzgCVgw+nIk
84Ue9ooAKoRq4aarr0135NqTuDonaIrp/nMC33MGyr8SFBCWFXQc8zJ/qWEztFeJ
db8SKwTbrSagV7w/uTiKFGC85ZKsQsi3LFg=
-----END CERTIFICATE-----
