Certificate:
    Data:
        Version: 3 (0x2)
        Serial Number: 4096 (0x1000)
        Signature Algorithm: sha256WithRSAEncryption
        Issuer: CN=ASX Intermediate CA
        Validity
            Not Before: May 17 13:04:36 2026 GMT
            Not After : May 14 13:04:36 2036 GMT
        Subject: CN=ASX Leaf
        Subject Public Key Info:
            Public Key Algorithm: rsaEncryption
                Public-Key: (2048 bit)
                Modulus:
                    00:e9:44:f7:95:1b:1a:69:b5:3a:95:d1:14:ca:b8:
                    4b:13:e0:ba:b4:a0:99:6f:3d:a3:e2:92:ca:76:c9:
                    16:b4:23:94:aa:21:0f:32:7b:6f:11:b7:fe:7e:19:
                    9f:ab:64:6f:3d:91:e9:c8:c8:9b:d9:2a:86:fc:f5:
                    ac:86:b3:21:24:88:67:7a:bf:e9:8c:82:ab:a8:9c:
                    79:ef:a7:a0:c0:71:44:fe:68:f9:69:88:8d:84:b0:
                    95:a9:1d:60:3a:be:ab:40:4a:20:b3:f2:2d:b6:ec:
                    9d:81:b3:35:76:57:79:db:dd:a8:3a:dc:6c:f1:5b:
                    49:0c:fc:b6:a4:ef:ea:92:11:04:c1:cb:5b:01:44:
                    45:58:9e:b7:8d:96:2d:a8:68:13:52:1c:f2:03:2e:
                    d0:f0:85:d5:dc:2d:e8:8a:d6:26:36:37:cf:7e:54:
                    ad:ac:fa:17:3e:b2:89:d5:45:ad:00:a1:35:52:1b:
                    bc:f7:5d:4a:d2:bb:b5:81:de:d4:53:2d:53:f3:45:
                    63:92:67:d5:5e:67:04:68:67:a4:19:e9:7d:78:5e:
                    a1:28:51:21:9d:eb:43:ca:be:1b:08:9a:01:ed:99:
                    df:81:6f:80:68:26:a7:9f:7e:85:89:7c:9e:0b:44:
                    1d:ea:1c:eb:8e:66:8d:0e:c1:15:8c:c8:26:ea:d7:
                    17:35
                Exponent: 65537 (0x10001)
        X509v3 extensions:
            X509v3 Basic Constraints: critical
                CA:FALSE
            X509v3 Subject Key Identifier: 
                08:40:86:BF:8B:48:E2:E8:B3:52:84:8C:A7:03:7A:C3:14:DC:42:F3
            X509v3 Authority Key Identifier: 
                40:03:97:94:C8:DE:EA:85:F8:B5:27:E7:F6:0A:60:3B:48:1D:65:81
            X509v3 Key Usage: critical
                Digital Signature
            X509v3 Extended Key Usage: 
                E-mail Protection, TLS Web Client Authentication
    Signature Algorithm: sha256WithRSAEncryption
    Signature Value:
        06:a6:49:cd:91:2a:f3:c6:82:6f:9b:ec:02:e6:75:b7:2c:75:
        5b:b1:18:61:42:5a:5c:76:bb:ff:0c:64:04:16:74:91:62:9e:
        70:c0:68:f1:5e:06:ea:c3:75:f4:a3:88:3f:41:84:5d:39:0d:
        a6:27:69:2c:e7:09:b9:91:a5:22:03:01:20:f5:77:e1:81:bf:
        d1:d3:f1:1e:cf:55:21:d8:6b:b0:66:77:89:65:74:11:0f:37:
        c8:bc:02:a7:a2:2c:f2:e9:49:9e:1b:65:05:0b:26:b5:05:dc:
        19:a1:25:5c:b6:38:ec:cb:f1:74:95:94:2e:fe:b8:81:bc:79:
        7a:43:3f:33:26:c2:c6:cd:ee:67:a6:64:d3:fe:60:a5:bc:bb:
        ca:bb:d8:37:59:69:6d:96:50:2f:ba:f1:ea:91:f3:49:90:09:
        93:7c:33:f6:98:02:c1:d1:4b:aa:95:37:76:fd:d2:f0:69:67:
        72:9c:31:12:af:e4:ee:37:f9:b3:fd:81:fe:06:d3:b4:f6:79:
        e9:75:b2:f1:b6:6d:3a:bc:d7:24:9c:15:1c:f4:d1:5e:0e:73:
        b0:ba:b6:ed:49:cf:0c:99:b3:3f:20:b8:42:a5:ac:ac:23:cf:
        a5:b6:7e:d7:54:ae:d3:f6:84:b1:33:a2:91:8a:45:9e:dd:74:
        2a:c3:f5:27
-----BEGIN CERTIFICATE-----
MIIDLDCCAhSgAwIBAgICEAAwDQYJKoZIhvcNAQELBQAwHjEcMBoGA1UEAwwTQVNY
IEludGVybWVkaWF0ZSBDQTAeFw0yNjA1MTcxMzA0MzZaFw0zNjA1MTQxMzA0MzZa
MBMxETAPBgNVBAMMCEFTWCBMZWFmMIIBIjANBgkqhkiG9w0BAQEFAAOCAQ8AMIIB
CgKCAQEA6UT3lRsaabU6ldEUyrhLE+C6tKCZbz2j4pLKdskWtCOUqiEPMntvEbf+
fhmfq2RvPZHpyMib2SqG/PWshrMhJIhner/pjIKrqJx576egwHFE/mj5aYiNhLCV
qR1gOr6rQEogs/IttuydgbM1dld5292oOtxs8VtJDPy2pO/qkhEEwctbAURFWJ63
jZYtqGgTUhzyAy7Q8IXV3C3oitYmNjfPflStrPoXPrKJ1UWtAKE1Uhu8911K0ru1
gd7UUy1T80VjkmfVXmcEaGekGel9eF6hKFEhnetDyr4bCJoB7ZnfgW+AaCann36F
iXyeC0Qd6hzrjmaNDsEVjMgm6tcXNQIDAQABo38wfTAMBgNVHRMBAf8EAjAAMB0G
A1UdDgQWBBQIQIa/i0ji6LNShIynA3rDFNxC8zAfBgNVHSMEGDAWgBRAA5eUyN7q
hfi1J+f2CmA7SB1lgTAOBgNVHQ8BAf8EBAMCB4AwHQYDVR0lBBYwFAYIKwYBBQUH
AwQGCCsGAQUFBwMCMA0GCSqGSIb3DQEBCwUAA4IBAQAGpknNkSrzxoJvm+wC5nW3
LHVbsRhhQlpcdrv/DGQEFnSRYp5wwGjxXgbqw3X0o4g/QYRdOQ2mJ2ks5wm5kaUi
AwEg9Xfhgb/R0/Eez1Uh2GuwZneJZXQRDzfIvAKnoizy6UmeG2UFCya1BdwZoSVc
tjjsy/F0lZQu/riBvHl6Qz8zJsLGze5npmTT/mClvLvKu9g3WWltllAvuvHqkfNJ
kAmTfDP2mALB0UuqlTd2/dLwaWdynDESr+TuN/mz/YH+BtO09nnpdbLxtm06vNck
nBUc9NFeDnOwurbtSc8MmbM/ILhCpaysI8+ltn7XVK7T9oSxM6KRikWe3XQqw/Un
-----END CERTIFICATE-----
